target datalayout = "e-m:e-p270:32:32-p271:32:32-p272:64:64-i64:64-i128:128-f80:128-n8:16:32:64-S128"
target triple = "x86_64-pc-linux-gnu"

@hf_tcp_option_kind = internal global i32 0, align 4
@hf_tcp_option_len = internal global i32 0, align 4
@ett_tcp_option_exp = internal global i32 0, align 4
@proto_tcp_option_tfo = internal global i32 0, align 4

; Function Attrs: nounwind uwtable
define internal i32 @dissect_tcpopt_tfo(ptr noundef %0, ptr noundef %1, ptr noundef %2, ptr noundef %3) #0 {
  %5 = alloca ptr, align 8
  %6 = alloca ptr, align 8
  %7 = alloca ptr, align 8
  %8 = alloca ptr, align 8
  %9 = alloca ptr, align 8
  %10 = alloca ptr, align 8
  %11 = alloca i32, align 4
  store ptr %0, ptr %5, align 8
  store ptr %1, ptr %6, align 8
  store ptr %2, ptr %7, align 8
  store ptr %3, ptr %8, align 8
  store i32 0, ptr %11, align 4
  %12 = load ptr, ptr %7, align 8
  %13 = load i32, ptr @proto_tcp_option_tfo, align 4
  %14 = load ptr, ptr %5, align 8
  %15 = load i32, ptr %11, align 4
  %16 = call ptr @proto_tree_add_item(ptr noundef %12, i32 noundef %13, ptr noundef %14, i32 noundef %15, i32 noundef -1, i32 noundef 0)
  store ptr %16, ptr %9, align 8
  %17 = load ptr, ptr %9, align 8
  %18 = load i32, ptr @ett_tcp_option_exp, align 4
  %19 = call ptr @proto_item_add_subtree(ptr noundef %17, i32 noundef %18)
  store ptr %19, ptr %10, align 8
  %20 = load ptr, ptr %10, align 8
  %21 = load i32, ptr @hf_tcp_option_kind, align 4
  %22 = load ptr, ptr %5, align 8
  %23 = load i32, ptr %11, align 4
  %24 = call ptr @proto_tree_add_item(ptr noundef %20, i32 noundef %21, ptr noundef %22, i32 noundef %23, i32 noundef 1, i32 noundef 0)
  %25 = load ptr, ptr %10, align 8
  %26 = load i32, ptr @hf_tcp_option_len, align 4
  %27 = load ptr, ptr %5, align 8
  %28 = load i32, ptr %11, align 4
  %29 = add i32 %28, 1
  %30 = call ptr @proto_tree_add_item(ptr noundef %25, i32 noundef %26, ptr noundef %27, i32 noundef %29, i32 noundef 1, i32 noundef 0)
  %31 = load ptr, ptr %5, align 8
  %32 = load i32, ptr %11, align 4
  %33 = load ptr, ptr %5, align 8
  %34 = call i32 @tvb_reported_length(ptr noundef %33)
  %35 = load ptr, ptr %6, align 8
  %36 = load ptr, ptr %10, align 8
  %37 = load ptr, ptr %8, align 8
  call void @dissect_tcpopt_tfo_payload(ptr noundef %31, i32 noundef %32, i32 noundef %34, ptr noundef %35, ptr noundef %36, ptr noundef %37)
  %38 = load ptr, ptr %5, align 8
  %39 = call i32 @tvb_captured_length(ptr noundef %38)
  ret i32 %39
}