; Function Attrs: nounwind uwtable
define internal i32 @dissect_tcpopt_tfo(ptr noundef %0, ptr noundef %1, ptr noundef %2, ptr noundef readonly captures(none) %3) #0 {
  %5 = load i32, ptr @proto_tcp_option_tfo, align 4
  %6 = tail call ptr @proto_tree_add_item(ptr noundef %2, i32 noundef %5, ptr noundef %0, i32 noundef 0, i32 noundef -1, i32 noundef 0) #20
  %7 = load i32, ptr @ett_tcp_option_exp, align 4
  %8 = tail call ptr @proto_item_add_subtree(ptr noundef %6, i32 noundef %7) #20
  %9 = load i32, ptr @hf_tcp_option_kind, align 4
  %10 = tail call ptr @proto_tree_add_item(ptr noundef %8, i32 noundef %9, ptr noundef %0, i32 noundef 0, i32 noundef 1, i32 noundef 0) #20
  %11 = load i32, ptr @hf_tcp_option_len, align 4
  %12 = tail call ptr @proto_tree_add_item(ptr noundef %8, i32 noundef %11, ptr noundef %0, i32 noundef 1, i32 noundef 1, i32 noundef 0) #20
  %13 = tail call i32 @tvb_reported_length(ptr noundef %0) #20
  tail call fastcc void @dissect_tcpopt_tfo_payload(ptr noundef %0, i32 noundef 0, i32 noundef %13, ptr noundef %1, ptr noundef %8, ptr noundef %3)
  %14 = tail call i32 @tvb_captured_length(ptr noundef %0) #20
  ret i32 %14
}